target datalayout = "e-m:e-p270:32:32-p271:32:32-p272:64:64-i64:64-i128:128-f80:128-n8:16:32:64-S128"
target triple = "x86_64-pc-linux-gnu"

%struct.ogg_codec = type { ptr, i8, ptr, ptr, ptr, ptr, i32, i32, ptr }
%struct.AVFormatContext = type { ptr, ptr, ptr, ptr, ptr, i32, i32, ptr, i32, ptr, i32, ptr, ptr, i64, i64, i64, i32, i32, i32, i64, i64, ptr, i32, i32, ptr, i32, i32, i32, i32, ptr, i64, i32, i32, %struct.AVIOInterruptCB, i32, i32, i32, i32, i64, i32, i32, i32, i32, i32, i32, i32, i32, i32, i32, i32, i32, i64, i32, i32, i32, i32, i32, ptr, ptr, ptr, ptr, i32, ptr, ptr, ptr, ptr, i32, ptr, ptr, i64, ptr, ptr, ptr, i64 }
%struct.AVIOInterruptCB = type { ptr, ptr }
%struct.ogg = type { ptr, i32, i32, i32, i64, ptr }
%struct.ogg_stream = type { ptr, i32, i32, i32, i32, i32, i32, i32, i64, i64, i64, i64, i64, i64, i32, ptr, i32, i32, i32, [255 x i8], i32, i32, i32, i32, i32, i32, i32, i32, ptr, i64, ptr }

@.str.16 = private unnamed_addr constant [46 x i8] c"Changing stream parameters in multistream ogg\00", align 1
@.str.17 = private unnamed_addr constant [28 x i8] c"Cannot identify new stream\0A\00", align 1

; Function Attrs: nounwind uwtable
define internal ptr @ogg_find_codec(ptr noundef %0, i32 noundef %1) #0 {
  %3 = alloca ptr, align 8
  %4 = alloca ptr, align 8
  %5 = alloca i32, align 4
  %6 = alloca i32, align 4
  %7 = alloca i32, align 4
  store ptr %0, ptr %4, align 8, !tbaa !83
  store i32 %1, ptr %5, align 4, !tbaa !37
  call void @llvm.lifetime.start.p0(i64 4, ptr %6) #10
  store i32 0, ptr %6, align 4, !tbaa !37
  br label %8

8:                                                ; preds = %47, %2
  %9 = load i32, ptr %6, align 4, !tbaa !37
  %10 = sext i32 %9 to i64
  %11 = getelementptr inbounds [16 x ptr], ptr @ogg_codecs, i64 0, i64 %10
  %12 = load ptr, ptr %11, align 8, !tbaa !135
  %13 = icmp ne ptr %12, null
  br i1 %13, label %14, label %50

14:                                               ; preds = %8
  %15 = load i32, ptr %5, align 4, !tbaa !37
  %16 = load i32, ptr %6, align 4, !tbaa !37
  %17 = sext i32 %16 to i64
  %18 = getelementptr inbounds [16 x ptr], ptr @ogg_codecs, i64 0, i64 %17
  %19 = load ptr, ptr %18, align 8, !tbaa !135
  %20 = getelementptr inbounds nuw %struct.ogg_codec, ptr %19, i32 0, i32 1
  %21 = load i8, ptr %20, align 8, !tbaa !136
  %22 = zext i8 %21 to i32
  %23 = icmp sge i32 %15, %22
  br i1 %23, label %24, label %46

24:                                               ; preds = %14
  %25 = load ptr, ptr %4, align 8, !tbaa !83
  %26 = load i32, ptr %6, align 4, !tbaa !37
  %27 = sext i32 %26 to i64
  %28 = getelementptr inbounds [16 x ptr], ptr @ogg_codecs, i64 0, i64 %27
  %29 = load ptr, ptr %28, align 8, !tbaa !135
  %30 = getelementptr inbounds nuw %struct.ogg_codec, ptr %29, i32 0, i32 0
  %31 = load ptr, ptr %30, align 8, !tbaa !137
  %32 = load i32, ptr %6, align 4, !tbaa !37
  %33 = sext i32 %32 to i64
  %34 = getelementptr inbounds [16 x ptr], ptr @ogg_codecs, i64 0, i64 %33
  %35 = load ptr, ptr %34, align 8, !tbaa !135
  %36 = getelementptr inbounds nuw %struct.ogg_codec, ptr %35, i32 0, i32 1
  %37 = load i8, ptr %36, align 8, !tbaa !136
  %38 = zext i8 %37 to i64
  %39 = call i32 @memcmp(ptr noundef %25, ptr noundef %31, i64 noundef %38) #9
  %40 = icmp ne i32 %39, 0
  br i1 %40, label %46, label %41

41:                                               ; preds = %24
  %42 = load i32, ptr %6, align 4, !tbaa !37
  %43 = sext i32 %42 to i64
  %44 = getelementptr inbounds [16 x ptr], ptr @ogg_codecs, i64 0, i64 %43
  %45 = load ptr, ptr %44, align 8, !tbaa !135
  store ptr %45, ptr %3, align 8
  store i32 1, ptr %7, align 4
  br label %51

46:                                               ; preds = %24, %14
  br label %47

47:                                               ; preds = %46
  %48 = load i32, ptr %6, align 4, !tbaa !37
  %49 = add nsw i32 %48, 1
  store i32 %49, ptr %6, align 4, !tbaa !37
  br label %8, !llvm.loop !138

50:                                               ; preds = %8
  store ptr null, ptr %3, align 8
  store i32 1, ptr %7, align 4
  br label %51

51:                                               ; preds = %50, %41
  call void @llvm.lifetime.end.p0(i64 4, ptr %6) #10
  %52 = load ptr, ptr %3, align 8
  ret ptr %52
}

; Function Attrs: nounwind uwtable
define internal i32 @ogg_replace_stream(ptr noundef %0, i32 noundef %1, ptr noundef %2, i32 noundef %3, i32 noundef %4) #0 {
  %6 = alloca i32, align 4
  %7 = alloca ptr, align 8
  %8 = alloca i32, align 4
  %9 = alloca ptr, align 8
  %10 = alloca i32, align 4
  %11 = alloca i32, align 4
  %12 = alloca ptr, align 8
  %13 = alloca ptr, align 8
  %14 = alloca ptr, align 8
  %15 = alloca i32, align 4
  %16 = alloca i32, align 4
  store ptr %0, ptr %7, align 8, !tbaa !14
  store i32 %1, ptr %8, align 4, !tbaa !37
  store ptr %2, ptr %9, align 8, !tbaa !83
  store i32 %3, ptr %10, align 4, !tbaa !37
  store i32 %4, ptr %11, align 4, !tbaa !37
  call void @llvm.lifetime.start.p0(i64 8, ptr %12) #10
  %17 = load ptr, ptr %7, align 8, !tbaa !14
  %18 = getelementptr inbounds nuw %struct.AVFormatContext, ptr %17, i32 0, i32 3
  %19 = load ptr, ptr %18, align 8, !tbaa !16
  store ptr %19, ptr %12, align 8, !tbaa !31
  call void @llvm.lifetime.start.p0(i64 8, ptr %13) #10
  call void @llvm.lifetime.start.p0(i64 8, ptr %14) #10
  call void @llvm.lifetime.start.p0(i64 4, ptr %15) #10
  store i32 0, ptr %15, align 4, !tbaa !37
  %20 = load ptr, ptr %12, align 8, !tbaa !31
  %21 = getelementptr inbounds nuw %struct.ogg, ptr %20, i32 0, i32 1
  %22 = load i32, ptr %21, align 8, !tbaa !41
  %23 = icmp ne i32 %22, 1
  br i1 %23, label %24, label %26

24:                                               ; preds = %5
  %25 = load ptr, ptr %7, align 8, !tbaa !14
  call void (ptr, ptr, ...) @avpriv_report_missing_feature(ptr noundef %25, ptr noundef @.str.16)
  store i32 -1163346256, ptr %6, align 4
  store i32 1, ptr %16, align 4
  br label %67

26:                                               ; preds = %5
  %27 = load ptr, ptr %9, align 8, !tbaa !83
  %28 = load i32, ptr %10, align 4, !tbaa !37
  %29 = call ptr @ogg_find_codec(ptr noundef %27, i32 noundef %28)
  store ptr %29, ptr %14, align 8, !tbaa !135
  %30 = load ptr, ptr %14, align 8, !tbaa !135
  %31 = icmp ne ptr %30, null
  br i1 %31, label %37, label %32

32:                                               ; preds = %26
  %33 = load i32, ptr %11, align 4, !tbaa !37
  %34 = icmp ne i32 %33, 0
  br i1 %34, label %37, label %35

35:                                               ; preds = %32
  %36 = load ptr, ptr %7, align 8, !tbaa !14
  call void (ptr, i32, ptr, ...) @av_log(ptr noundef %36, i32 noundef 16, ptr noundef @.str.17)
  store i32 -1094995529, ptr %6, align 4
  store i32 1, ptr %16, align 4
  br label %67

37:                                               ; preds = %32, %26
  %38 = load ptr, ptr %12, align 8, !tbaa !31
  %39 = getelementptr inbounds nuw %struct.ogg, ptr %38, i32 0, i32 0
  %40 = load ptr, ptr %39, align 8, !tbaa !42
  %41 = getelementptr inbounds %struct.ogg_stream, ptr %40, i64 0
  store ptr %41, ptr %13, align 8, !tbaa !43
  %42 = load ptr, ptr %13, align 8, !tbaa !43
  %43 = getelementptr inbounds nuw %struct.ogg_stream, ptr %42, i32 0, i32 15
  %44 = load ptr, ptr %43, align 8, !tbaa !47
  %45 = load ptr, ptr %14, align 8, !tbaa !135
  %46 = icmp ne ptr %44, %45
  br i1 %46, label %47, label %48

47:                                               ; preds = %37
  store i32 -22, ptr %6, align 4
  store i32 1, ptr %16, align 4
  br label %67

48:                                               ; preds = %37
  %49 = load i32, ptr %8, align 4, !tbaa !37
  %50 = load ptr, ptr %13, align 8, !tbaa !43
  %51 = getelementptr inbounds nuw %struct.ogg_stream, ptr %50, i32 0, i32 7
  store i32 %49, ptr %51, align 8, !tbaa !139
  %52 = load ptr, ptr %14, align 8, !tbaa !135
  %53 = load ptr, ptr %13, align 8, !tbaa !43
  %54 = getelementptr inbounds nuw %struct.ogg_stream, ptr %53, i32 0, i32 15
  store ptr %52, ptr %54, align 8, !tbaa !47
  %55 = load i32, ptr %8, align 4, !tbaa !37
  %56 = load ptr, ptr %13, align 8, !tbaa !43
  %57 = getelementptr inbounds nuw %struct.ogg_stream, ptr %56, i32 0, i32 7
  store i32 %55, ptr %57, align 8, !tbaa !139
  %58 = load ptr, ptr %13, align 8, !tbaa !43
  %59 = getelementptr inbounds nuw %struct.ogg_stream, ptr %58, i32 0, i32 10
  store i64 0, ptr %59, align 8, !tbaa !63
  %60 = load ptr, ptr %13, align 8, !tbaa !43
  %61 = getelementptr inbounds nuw %struct.ogg_stream, ptr %60, i32 0, i32 11
  store i64 0, ptr %61, align 8, !tbaa !143
  %62 = load ptr, ptr %13, align 8, !tbaa !43
  %63 = getelementptr inbounds nuw %struct.ogg_stream, ptr %62, i32 0, i32 26
  store i32 0, ptr %63, align 4, !tbaa !81
  %64 = load ptr, ptr %13, align 8, !tbaa !43
  %65 = getelementptr inbounds nuw %struct.ogg_stream, ptr %64, i32 0, i32 27
  store i32 0, ptr %65, align 8, !tbaa !82
  %66 = load i32, ptr %15, align 4, !tbaa !37
  store i32 %66, ptr %6, align 4
  store i32 1, ptr %16, align 4
  br label %67

67:                                               ; preds = %48, %47, %35, %24
  call void @llvm.lifetime.end.p0(i64 4, ptr %15) #10
  call void @llvm.lifetime.end.p0(i64 8, ptr %14) #10
  call void @llvm.lifetime.end.p0(i64 8, ptr %13) #10
  call void @llvm.lifetime.end.p0(i64 8, ptr %12) #10
  %68 = load i32, ptr %6, align 4
  ret i32 %68
}