; Function Attrs: nounwind uwtable
define internal fastcc range(i32 -1163346256, 1) i32 @ogg_replace_stream(ptr noundef %0, i32 noundef %1, ptr noundef readonly captures(none) %2, i32 noundef %3, i32 noundef range(i32 0, 2) %4) unnamed_addr #1 {
  %6 = getelementptr inbounds nuw i8, ptr %0, i64 24
  %7 = load ptr, ptr %6, align 8, !tbaa !12
  %8 = getelementptr inbounds nuw i8, ptr %7, i64 8
  %9 = load i32, ptr %8, align 8, !tbaa !34
  %.not = icmp eq i32 %9, 1
  br i1 %.not, label %.preheader, label %10

10:                                               ; preds = %5
  tail call void (ptr, ptr, ...) @avpriv_report_missing_feature(ptr noundef nonnull %0, ptr noundef nonnull @.str.16) #9
  br label %30

.preheader:                                       ; preds = %5, %18
  %indvars.iv.i = phi i64 [ %indvars.iv.next.i, %18 ], [ 0, %5 ]
  %11 = phi ptr [ %20, %18 ], [ @ff_skeleton_codec, %5 ]
  %12 = getelementptr inbounds nuw i8, ptr %11, i64 8
  %13 = load i8, ptr %12, align 8, !tbaa !113
  %14 = zext i8 %13 to i32
  %.not10.i = icmp slt i32 %3, %14
  br i1 %.not10.i, label %18, label %15

15:                                               ; preds = %.preheader
  %16 = load ptr, ptr %11, align 8, !tbaa !114
  %17 = zext i8 %13 to i64
  %bcmp.i = tail call i32 @bcmp(ptr readonly %2, ptr %16, i64 %17)
  %.not11.i = icmp eq i32 %bcmp.i, 0
  br i1 %.not11.i, label %ogg_find_codec.exit.thread, label %18

18:                                               ; preds = %15, %.preheader
  %indvars.iv.next.i = add nuw nsw i64 %indvars.iv.i, 1
  %19 = getelementptr inbounds nuw [16 x ptr], ptr @ogg_codecs, i64 0, i64 %indvars.iv.next.i
  %20 = load ptr, ptr %19, align 8, !tbaa !115
  %.not.i = icmp eq i64 %indvars.iv.next.i, 15
  br i1 %.not.i, label %ogg_find_codec.exit, label %.preheader, !llvm.loop !116

ogg_find_codec.exit:                              ; preds = %18
  %.not28 = icmp eq i32 %4, 0
  br i1 %.not28, label %21, label %ogg_find_codec.exit.thread

21:                                               ; preds = %ogg_find_codec.exit
  tail call void (ptr, i32, ptr, ...) @av_log(ptr noundef %0, i32 noundef 16, ptr noundef nonnull @.str.17) #9
  br label %30

ogg_find_codec.exit.thread:                       ; preds = %15, %ogg_find_codec.exit
  %.08.i27 = phi ptr [ null, %ogg_find_codec.exit ], [ %11, %15 ]
  %22 = load ptr, ptr %7, align 8, !tbaa !35
  %23 = getelementptr inbounds nuw i8, ptr %22, i64 96
  %24 = load ptr, ptr %23, align 8, !tbaa !39
  %.not24 = icmp eq ptr %24, %.08.i27
  br i1 %.not24, label %25, label %30

25:                                               ; preds = %ogg_find_codec.exit.thread
  %26 = getelementptr inbounds nuw i8, ptr %22, i64 32
  store i32 %1, ptr %26, align 8, !tbaa !125
  %27 = getelementptr inbounds nuw i8, ptr %22, i64 56
  %28 = getelementptr inbounds nuw i8, ptr %22, i64 396
  store i32 0, ptr %28, align 4, !tbaa !83
  %29 = getelementptr inbounds nuw i8, ptr %22, i64 400
  store i32 0, ptr %29, align 8, !tbaa !84
  tail call void @llvm.memset.p0.i64(ptr noundef nonnull align 8 dereferenceable(16) %27, i8 0, i64 16, i1 false)
  br label %30

30:                                               ; preds = %ogg_find_codec.exit.thread, %25, %21, %10
  %.0 = phi i32 [ -1163346256, %10 ], [ 0, %25 ], [ -1094995529, %21 ], [ -22, %ogg_find_codec.exit.thread ]
  ret i32 %.0
}